; Function Attrs: cold nounwind optsize uwtable
define internal void @blockdetect_uninit(ptr noundef %0) #0 {
  %2 = getelementptr inbounds nuw i8, ptr %0, i64 72
  %3 = load ptr, ptr %2, align 8, !tbaa !4
  %4 = getelementptr inbounds nuw i8, ptr %3, i64 40
  %5 = load i64, ptr %4, align 8, !tbaa !20
  %.not = icmp eq i64 %5, 0
  br i1 %.not, label %11, label %6

6:                                                ; preds = %1
  %7 = getelementptr inbounds nuw i8, ptr %3, i64 32
  %8 = load double, ptr %7, align 8, !tbaa !25
  %9 = uitofp i64 %5 to double
  %10 = fdiv nsz double %8, %9
  tail call void (ptr, i32, ptr, ...) @av_log(ptr noundef nonnull %0, i32 noundef 32, ptr noundef nonnull @.str.14, double noundef %10) #6
  br label %11

11:                                               ; preds = %6, %1
  %12 = getelementptr inbounds nuw i8, ptr %3, i64 48
  tail call void @av_freep(ptr noundef nonnull %12) #6
  ret void
}